; Function Attrs: mustprogress nounwind uwtable
define dso_local noundef nonnull align 8 dereferenceable(48) ptr @_ZNK4llvm13LegalityQuery5printERNS_11raw_ostreamE(ptr noundef nonnull readonly align 8 captures(none) dereferenceable(40) %0, ptr noundef nonnull returned align 8 dereferenceable(48) %1) local_unnamed_addr #0 align 2 {
  %3 = getelementptr inbounds nuw i8, ptr %1, i64 24
  %4 = load ptr, ptr %3, align 8
  %5 = getelementptr inbounds nuw i8, ptr %1, i64 32
  %6 = load ptr, ptr %5, align 8
  %7 = ptrtoint ptr %4 to i64
  %8 = ptrtoint ptr %6 to i64
  %9 = sub i64 %7, %8
  %10 = icmp ult i64 %9, 7
  br i1 %10, label %11, label %13

11:                                               ; preds = %2
  %12 = tail call noundef nonnull align 8 dereferenceable(48) ptr @_ZN4llvm11raw_ostream5writeEPKcm(ptr noundef nonnull align 8 dereferenceable(48) %1, ptr noundef nonnull @.str.14, i64 noundef 7) #13
  br label %_ZN4llvm11raw_ostreamlsEPKc.exit

13:                                               ; preds = %2
  tail call void @llvm.memcpy.p0.p0.i64(ptr noundef nonnull align 1 dereferenceable(7) %6, ptr noundef nonnull align 1 dereferenceable(7) @.str.14, i64 7, i1 false)
  %14 = load ptr, ptr %5, align 8
  %15 = getelementptr inbounds nuw i8, ptr %14, i64 7
  store ptr %15, ptr %5, align 8
  br label %_ZN4llvm11raw_ostreamlsEPKc.exit

_ZN4llvm11raw_ostreamlsEPKc.exit:                 ; preds = %11, %13
  %.0.i.i = phi ptr [ %12, %11 ], [ %1, %13 ]
  %16 = load i32, ptr %0, align 8
  %17 = zext i32 %16 to i64
  %18 = tail call noundef nonnull align 8 dereferenceable(48) ptr @_ZN4llvm11raw_ostreamlsEm(ptr noundef nonnull align 8 dereferenceable(48) %.0.i.i, i64 noundef %17) #13
  %19 = getelementptr inbounds nuw i8, ptr %18, i64 24
  %20 = load ptr, ptr %19, align 8
  %21 = getelementptr inbounds nuw i8, ptr %18, i64 32
  %22 = load ptr, ptr %21, align 8
  %23 = ptrtoint ptr %20 to i64
  %24 = ptrtoint ptr %22 to i64
  %25 = sub i64 %23, %24
  %26 = icmp ult i64 %25, 7
  br i1 %26, label %27, label %29

27:                                               ; preds = %_ZN4llvm11raw_ostreamlsEPKc.exit
  %28 = tail call noundef nonnull align 8 dereferenceable(48) ptr @_ZN4llvm11raw_ostream5writeEPKcm(ptr noundef nonnull align 8 dereferenceable(48) %18, ptr noundef nonnull @.str.15, i64 noundef 7) #13
  br label %_ZN4llvm11raw_ostreamlsEPKc.exit25

29:                                               ; preds = %_ZN4llvm11raw_ostreamlsEPKc.exit
  tail call void @llvm.memcpy.p0.p0.i64(ptr noundef nonnull align 1 dereferenceable(7) %22, ptr noundef nonnull align 1 dereferenceable(7) @.str.15, i64 7, i1 false)
  %30 = load ptr, ptr %21, align 8
  %31 = getelementptr inbounds nuw i8, ptr %30, i64 7
  store ptr %31, ptr %21, align 8
  br label %_ZN4llvm11raw_ostreamlsEPKc.exit25

_ZN4llvm11raw_ostreamlsEPKc.exit25:               ; preds = %27, %29
  %32 = getelementptr inbounds nuw i8, ptr %0, i64 8
  %33 = load ptr, ptr %32, align 8
  %34 = getelementptr inbounds nuw i8, ptr %0, i64 16
  %35 = load i64, ptr %34, align 8
  %36 = getelementptr inbounds %"class.llvm::LLT", ptr %33, i64 %35
  %.not38 = icmp eq i64 %35, 0
  br i1 %.not38, label %._crit_edge, label %.lr.ph

.lr.ph:                                           ; preds = %_ZN4llvm11raw_ostreamlsEPKc.exit25, %_ZN4llvm11raw_ostreamlsEPKc.exit28
  %.039 = phi ptr [ %48, %_ZN4llvm11raw_ostreamlsEPKc.exit28 ], [ %33, %_ZN4llvm11raw_ostreamlsEPKc.exit25 ]
  tail call void @_ZNK4llvm3LLT5printERNS_11raw_ostreamE(ptr noundef nonnull align 8 dereferenceable(8) %.039, ptr noundef nonnull align 8 dereferenceable(48) %1) #13
  %37 = load ptr, ptr %3, align 8
  %38 = load ptr, ptr %5, align 8
  %39 = ptrtoint ptr %37 to i64
  %40 = ptrtoint ptr %38 to i64
  %41 = sub i64 %39, %40
  %42 = icmp ult i64 %41, 2
  br i1 %42, label %43, label %45

43:                                               ; preds = %.lr.ph
  %44 = tail call noundef nonnull align 8 dereferenceable(48) ptr @_ZN4llvm11raw_ostream5writeEPKcm(ptr noundef nonnull align 8 dereferenceable(48) %1, ptr noundef nonnull @.str.16, i64 noundef 2) #13
  br label %_ZN4llvm11raw_ostreamlsEPKc.exit28

45:                                               ; preds = %.lr.ph
  store i16 8236, ptr %38, align 1
  %46 = load ptr, ptr %5, align 8
  %47 = getelementptr inbounds nuw i8, ptr %46, i64 2
  store ptr %47, ptr %5, align 8
  br label %_ZN4llvm11raw_ostreamlsEPKc.exit28

_ZN4llvm11raw_ostreamlsEPKc.exit28:               ; preds = %43, %45
  %48 = getelementptr inbounds nuw i8, ptr %.039, i64 8
  %.not = icmp eq ptr %48, %36
  br i1 %.not, label %._crit_edge, label %.lr.ph

._crit_edge:                                      ; preds = %_ZN4llvm11raw_ostreamlsEPKc.exit28, %_ZN4llvm11raw_ostreamlsEPKc.exit25
  %49 = load ptr, ptr %3, align 8
  %50 = load ptr, ptr %5, align 8
  %51 = ptrtoint ptr %49 to i64
  %52 = ptrtoint ptr %50 to i64
  %53 = sub i64 %51, %52
  %54 = icmp ult i64 %53, 9
  br i1 %54, label %55, label %57

55:                                               ; preds = %._crit_edge
  %56 = tail call noundef nonnull align 8 dereferenceable(48) ptr @_ZN4llvm11raw_ostream5writeEPKcm(ptr noundef nonnull align 8 dereferenceable(48) %1, ptr noundef nonnull @.str.17, i64 noundef 9) #13
  br label %_ZN4llvm11raw_ostreamlsEPKc.exit31

57:                                               ; preds = %._crit_edge
  tail call void @llvm.memcpy.p0.p0.i64(ptr noundef nonnull align 1 dereferenceable(9) %50, ptr noundef nonnull align 1 dereferenceable(9) @.str.17, i64 9, i1 false)
  %58 = load ptr, ptr %5, align 8
  %59 = getelementptr inbounds nuw i8, ptr %58, i64 9
  store ptr %59, ptr %5, align 8
  br label %_ZN4llvm11raw_ostreamlsEPKc.exit31

_ZN4llvm11raw_ostreamlsEPKc.exit31:               ; preds = %55, %57
  %60 = getelementptr inbounds nuw i8, ptr %0, i64 24
  %61 = load ptr, ptr %60, align 8
  %62 = getelementptr inbounds nuw i8, ptr %0, i64 32
  %63 = load i64, ptr %62, align 8
  %64 = getelementptr inbounds %"struct.llvm::LegalityQuery::MemDesc", ptr %61, i64 %63
  %.not2240 = icmp eq i64 %63, 0
  br i1 %.not2240, label %._crit_edge43, label %.lr.ph42

.lr.ph42:                                         ; preds = %_ZN4llvm11raw_ostreamlsEPKc.exit31, %_ZN4llvm11raw_ostreamlsEPKc.exit34
  %.02141 = phi ptr [ %76, %_ZN4llvm11raw_ostreamlsEPKc.exit34 ], [ %61, %_ZN4llvm11raw_ostreamlsEPKc.exit31 ]
  tail call void @_ZNK4llvm3LLT5printERNS_11raw_ostreamE(ptr noundef nonnull align 8 dereferenceable(8) %.02141, ptr noundef nonnull align 8 dereferenceable(48) %1) #13
  %65 = load ptr, ptr %3, align 8
  %66 = load ptr, ptr %5, align 8
  %67 = ptrtoint ptr %65 to i64
  %68 = ptrtoint ptr %66 to i64
  %69 = sub i64 %67, %68
  %70 = icmp ult i64 %69, 2
  br i1 %70, label %71, label %73

71:                                               ; preds = %.lr.ph42
  %72 = tail call noundef nonnull align 8 dereferenceable(48) ptr @_ZN4llvm11raw_ostream5writeEPKcm(ptr noundef nonnull align 8 dereferenceable(48) %1, ptr noundef nonnull @.str.16, i64 noundef 2) #13
  br label %_ZN4llvm11raw_ostreamlsEPKc.exit34

73:                                               ; preds = %.lr.ph42
  store i16 8236, ptr %66, align 1
  %74 = load ptr, ptr %5, align 8
  %75 = getelementptr inbounds nuw i8, ptr %74, i64 2
  store ptr %75, ptr %5, align 8
  br label %_ZN4llvm11raw_ostreamlsEPKc.exit34

_ZN4llvm11raw_ostreamlsEPKc.exit34:               ; preds = %71, %73
  %76 = getelementptr inbounds nuw i8, ptr %.02141, i64 24
  %.not22 = icmp eq ptr %76, %64
  br i1 %.not22, label %._crit_edge43, label %.lr.ph42

._crit_edge43:                                    ; preds = %_ZN4llvm11raw_ostreamlsEPKc.exit34, %_ZN4llvm11raw_ostreamlsEPKc.exit31
  %77 = load ptr, ptr %3, align 8
  %78 = load ptr, ptr %5, align 8
  %79 = icmp eq ptr %77, %78
  br i1 %79, label %80, label %82

80:                                               ; preds = %._crit_edge43
  %81 = tail call noundef nonnull align 8 dereferenceable(48) ptr @_ZN4llvm11raw_ostream5writeEPKcm(ptr noundef nonnull align 8 dereferenceable(48) %1, ptr noundef nonnull @.str.18, i64 noundef 1) #13
  br label %_ZN4llvm11raw_ostreamlsEPKc.exit37

82:                                               ; preds = %._crit_edge43
  store i8 125, ptr %78, align 1
  %83 = load ptr, ptr %5, align 8
  %84 = getelementptr inbounds nuw i8, ptr %83, i64 1
  store ptr %84, ptr %5, align 8
  br label %_ZN4llvm11raw_ostreamlsEPKc.exit37

_ZN4llvm11raw_ostreamlsEPKc.exit37:               ; preds = %80, %82
  ret ptr %1
}